target datalayout = "e-m:e-p270:32:32-p271:32:32-p272:64:64-i64:64-i128:128-f80:128-n8:16:32:64-S128"
target triple = "x86_64-pc-linux-gnu"

%struct.dynhds = type { ptr, i64, i64, i64, i64, i64, i32 }
%struct.dynhds_entry = type { ptr, ptr, i64, i64 }

@Curl_cfree = external global ptr, align 8
@Curl_ccalloc = external global ptr, align 8

; Function Attrs: nounwind uwtable
define internal void @entry_free(ptr noundef %0) #0 {
  %2 = alloca ptr, align 8
  store ptr %0, ptr %2, align 8, !tbaa !21
  %3 = load ptr, ptr @Curl_cfree, align 8, !tbaa !25
  %4 = load ptr, ptr %2, align 8, !tbaa !21
  call void %3(ptr noundef %4)
  ret void
}

; Function Attrs: nounwind uwtable
define internal ptr @entry_append(ptr noundef %0, ptr noundef %1, i64 noundef %2) #0 {
  %4 = alloca ptr, align 8
  %5 = alloca ptr, align 8
  %6 = alloca ptr, align 8
  %7 = alloca i64, align 8
  %8 = alloca ptr, align 8
  %9 = alloca i64, align 8
  %10 = alloca ptr, align 8
  %11 = alloca i32, align 4
  store ptr %0, ptr %5, align 8, !tbaa !21
  store ptr %1, ptr %6, align 8, !tbaa !28
  store i64 %2, ptr %7, align 8, !tbaa !9
  call void @llvm.lifetime.start.p0(i64 8, ptr %8) #5
  call void @llvm.lifetime.start.p0(i64 8, ptr %9) #5
  %12 = load ptr, ptr %5, align 8, !tbaa !21
  %13 = getelementptr inbounds nuw %struct.dynhds_entry, ptr %12, i32 0, i32 3
  %14 = load i64, ptr %13, align 8, !tbaa !36
  %15 = add i64 %14, 1
  %16 = load i64, ptr %7, align 8, !tbaa !9
  %17 = add i64 %15, %16
  store i64 %17, ptr %9, align 8, !tbaa !9
  call void @llvm.lifetime.start.p0(i64 8, ptr %10) #5
  br label %18

18:                                               ; preds = %3
  br label %19

19:                                               ; preds = %18
  br label %20

20:                                               ; preds = %19
  %21 = load ptr, ptr @Curl_ccalloc, align 8, !tbaa !25
  %22 = load ptr, ptr %5, align 8, !tbaa !21
  %23 = getelementptr inbounds nuw %struct.dynhds_entry, ptr %22, i32 0, i32 2
  %24 = load i64, ptr %23, align 8, !tbaa !30
  %25 = add i64 32, %24
  %26 = load i64, ptr %9, align 8, !tbaa !9
  %27 = add i64 %25, %26
  %28 = add i64 %27, 2
  %29 = call ptr %21(i64 noundef 1, i64 noundef %28)
  store ptr %29, ptr %8, align 8, !tbaa !21
  %30 = load ptr, ptr %8, align 8, !tbaa !21
  %31 = icmp ne ptr %30, null
  br i1 %31, label %33, label %32

32:                                               ; preds = %20
  store ptr null, ptr %4, align 8
  store i32 1, ptr %11, align 4
  br label %80

33:                                               ; preds = %20
  %34 = load ptr, ptr %8, align 8, !tbaa !21
  %35 = getelementptr inbounds nuw i8, ptr %34, i64 32
  store ptr %35, ptr %10, align 8, !tbaa !28
  %36 = load ptr, ptr %8, align 8, !tbaa !21
  %37 = getelementptr inbounds nuw %struct.dynhds_entry, ptr %36, i32 0, i32 0
  store ptr %35, ptr %37, align 8, !tbaa !32
  %38 = load ptr, ptr %10, align 8, !tbaa !28
  %39 = load ptr, ptr %5, align 8, !tbaa !21
  %40 = getelementptr inbounds nuw %struct.dynhds_entry, ptr %39, i32 0, i32 0
  %41 = load ptr, ptr %40, align 8, !tbaa !32
  %42 = load ptr, ptr %5, align 8, !tbaa !21
  %43 = getelementptr inbounds nuw %struct.dynhds_entry, ptr %42, i32 0, i32 2
  %44 = load i64, ptr %43, align 8, !tbaa !30
  call void @llvm.memcpy.p0.p0.i64(ptr align 1 %38, ptr align 1 %41, i64 %44, i1 false)
  %45 = load ptr, ptr %5, align 8, !tbaa !21
  %46 = getelementptr inbounds nuw %struct.dynhds_entry, ptr %45, i32 0, i32 2
  %47 = load i64, ptr %46, align 8, !tbaa !30
  %48 = load ptr, ptr %8, align 8, !tbaa !21
  %49 = getelementptr inbounds nuw %struct.dynhds_entry, ptr %48, i32 0, i32 2
  store i64 %47, ptr %49, align 8, !tbaa !30
  %50 = load ptr, ptr %5, align 8, !tbaa !21
  %51 = getelementptr inbounds nuw %struct.dynhds_entry, ptr %50, i32 0, i32 2
  %52 = load i64, ptr %51, align 8, !tbaa !30
  %53 = add i64 %52, 1
  %54 = load ptr, ptr %10, align 8, !tbaa !28
  %55 = getelementptr inbounds nuw i8, ptr %54, i64 %53
  store ptr %55, ptr %10, align 8, !tbaa !28
  %56 = load ptr, ptr %8, align 8, !tbaa !21
  %57 = getelementptr inbounds nuw %struct.dynhds_entry, ptr %56, i32 0, i32 1
  store ptr %55, ptr %57, align 8, !tbaa !35
  %58 = load ptr, ptr %10, align 8, !tbaa !28
  %59 = load ptr, ptr %5, align 8, !tbaa !21
  %60 = getelementptr inbounds nuw %struct.dynhds_entry, ptr %59, i32 0, i32 1
  %61 = load ptr, ptr %60, align 8, !tbaa !35
  %62 = load ptr, ptr %5, align 8, !tbaa !21
  %63 = getelementptr inbounds nuw %struct.dynhds_entry, ptr %62, i32 0, i32 3
  %64 = load i64, ptr %63, align 8, !tbaa !36
  call void @llvm.memcpy.p0.p0.i64(ptr align 1 %58, ptr align 1 %61, i64 %64, i1 false)
  %65 = load ptr, ptr %5, align 8, !tbaa !21
  %66 = getelementptr inbounds nuw %struct.dynhds_entry, ptr %65, i32 0, i32 3
  %67 = load i64, ptr %66, align 8, !tbaa !36
  %68 = load ptr, ptr %10, align 8, !tbaa !28
  %69 = getelementptr inbounds nuw i8, ptr %68, i64 %67
  store ptr %69, ptr %10, align 8, !tbaa !28
  %70 = load ptr, ptr %10, align 8, !tbaa !28
  %71 = getelementptr inbounds i8, ptr %70, i64 0
  store i8 32, ptr %71, align 1, !tbaa !37
  %72 = load ptr, ptr %10, align 8, !tbaa !28
  %73 = getelementptr inbounds i8, ptr %72, i64 1
  %74 = load ptr, ptr %6, align 8, !tbaa !28
  %75 = load i64, ptr %7, align 8, !tbaa !9
  call void @llvm.memcpy.p0.p0.i64(ptr align 1 %73, ptr align 1 %74, i64 %75, i1 false)
  %76 = load i64, ptr %9, align 8, !tbaa !9
  %77 = load ptr, ptr %8, align 8, !tbaa !21
  %78 = getelementptr inbounds nuw %struct.dynhds_entry, ptr %77, i32 0, i32 3
  store i64 %76, ptr %78, align 8, !tbaa !36
  %79 = load ptr, ptr %8, align 8, !tbaa !21
  store ptr %79, ptr %4, align 8
  store i32 1, ptr %11, align 4
  br label %80

80:                                               ; preds = %33, %32
  call void @llvm.lifetime.end.p0(i64 8, ptr %10) #5
  call void @llvm.lifetime.end.p0(i64 8, ptr %9) #5
  call void @llvm.lifetime.end.p0(i64 8, ptr %8) #5
  %81 = load ptr, ptr %4, align 8
  ret ptr %81
}

; Function Attrs: nounwind uwtable
define dso_local i32 @Curl_dynhds_h1_add_line(ptr noundef %0, ptr noundef %1, i64 noundef %2) #0 {
  %4 = alloca i32, align 4
  %5 = alloca ptr, align 8
  %6 = alloca ptr, align 8
  %7 = alloca i64, align 8
  %8 = alloca ptr, align 8
  %9 = alloca ptr, align 8
  %10 = alloca i64, align 8
  %11 = alloca ptr, align 8
  %12 = alloca i64, align 8
  %13 = alloca i64, align 8
  %14 = alloca i32, align 4
  %15 = alloca ptr, align 8
  %16 = alloca ptr, align 8
  store ptr %0, ptr %5, align 8, !tbaa !4
  store ptr %1, ptr %6, align 8, !tbaa !28
  store i64 %2, ptr %7, align 8, !tbaa !9
  call void @llvm.lifetime.start.p0(i64 8, ptr %8) #5
  call void @llvm.lifetime.start.p0(i64 8, ptr %9) #5
  call void @llvm.lifetime.start.p0(i64 8, ptr %10) #5
  call void @llvm.lifetime.start.p0(i64 8, ptr %11) #5
  call void @llvm.lifetime.start.p0(i64 8, ptr %12) #5
  call void @llvm.lifetime.start.p0(i64 8, ptr %13) #5
  %17 = load ptr, ptr %6, align 8, !tbaa !28
  %18 = icmp ne ptr %17, null
  br i1 %18, label %19, label %22

19:                                               ; preds = %3
  %20 = load i64, ptr %7, align 8, !tbaa !9
  %21 = icmp ne i64 %20, 0
  br i1 %21, label %23, label %22

22:                                               ; preds = %19, %3
  store i32 0, ptr %4, align 4
  store i32 1, ptr %14, align 4
  br label %168

23:                                               ; preds = %19
  %24 = load ptr, ptr %6, align 8, !tbaa !28
  %25 = getelementptr inbounds i8, ptr %24, i64 0
  %26 = load i8, ptr %25, align 1, !tbaa !37
  %27 = sext i8 %26 to i32
  %28 = icmp eq i32 %27, 32
  br i1 %28, label %35, label %29

29:                                               ; preds = %23
  %30 = load ptr, ptr %6, align 8, !tbaa !28
  %31 = getelementptr inbounds i8, ptr %30, i64 0
  %32 = load i8, ptr %31, align 1, !tbaa !37
  %33 = sext i8 %32 to i32
  %34 = icmp eq i32 %33, 9
  br i1 %34, label %35, label %99

35:                                               ; preds = %29, %23
  call void @llvm.lifetime.start.p0(i64 8, ptr %15) #5
  call void @llvm.lifetime.start.p0(i64 8, ptr %16) #5
  %36 = load ptr, ptr %5, align 8, !tbaa !4
  %37 = getelementptr inbounds nuw %struct.dynhds, ptr %36, i32 0, i32 1
  %38 = load i64, ptr %37, align 8, !tbaa !17
  %39 = icmp ne i64 %38, 0
  br i1 %39, label %41, label %40

40:                                               ; preds = %35
  store i32 43, ptr %4, align 4
  store i32 1, ptr %14, align 4
  br label %98

41:                                               ; preds = %35
  br label %42

42:                                               ; preds = %61, %41
  %43 = load i64, ptr %7, align 8, !tbaa !9
  %44 = icmp ne i64 %43, 0
  br i1 %44, label %45, label %59

45:                                               ; preds = %42
  %46 = load ptr, ptr %6, align 8, !tbaa !28
  %47 = getelementptr inbounds i8, ptr %46, i64 0
  %48 = load i8, ptr %47, align 1, !tbaa !37
  %49 = sext i8 %48 to i32
  %50 = icmp eq i32 %49, 32
  br i1 %50, label %57, label %51

51:                                               ; preds = %45
  %52 = load ptr, ptr %6, align 8, !tbaa !28
  %53 = getelementptr inbounds i8, ptr %52, i64 0
  %54 = load i8, ptr %53, align 1, !tbaa !37
  %55 = sext i8 %54 to i32
  %56 = icmp eq i32 %55, 9
  br label %57

57:                                               ; preds = %51, %45
  %58 = phi i1 [ true, %45 ], [ %56, %51 ]
  br label %59

59:                                               ; preds = %57, %42
  %60 = phi i1 [ false, %42 ], [ %58, %57 ]
  br i1 %60, label %61, label %66

61:                                               ; preds = %59
  %62 = load ptr, ptr %6, align 8, !tbaa !28
  %63 = getelementptr inbounds nuw i8, ptr %62, i32 1
  store ptr %63, ptr %6, align 8, !tbaa !28
  %64 = load i64, ptr %7, align 8, !tbaa !9
  %65 = add i64 %64, -1
  store i64 %65, ptr %7, align 8, !tbaa !9
  br label %42, !llvm.loop !38

66:                                               ; preds = %59
  %67 = load i64, ptr %7, align 8, !tbaa !9
  %68 = icmp ne i64 %67, 0
  br i1 %68, label %70, label %69

69:                                               ; preds = %66
  store i32 43, ptr %4, align 4
  store i32 1, ptr %14, align 4
  br label %98

70:                                               ; preds = %66
  %71 = load ptr, ptr %5, align 8, !tbaa !4
  %72 = getelementptr inbounds nuw %struct.dynhds, ptr %71, i32 0, i32 0
  %73 = load ptr, ptr %72, align 8, !tbaa !11
  %74 = load ptr, ptr %5, align 8, !tbaa !4
  %75 = getelementptr inbounds nuw %struct.dynhds, ptr %74, i32 0, i32 1
  %76 = load i64, ptr %75, align 8, !tbaa !17
  %77 = sub i64 %76, 1
  %78 = getelementptr inbounds nuw ptr, ptr %73, i64 %77
  %79 = load ptr, ptr %78, align 8, !tbaa !21
  store ptr %79, ptr %15, align 8, !tbaa !21
  %80 = load ptr, ptr %15, align 8, !tbaa !21
  %81 = load ptr, ptr %6, align 8, !tbaa !28
  %82 = load i64, ptr %7, align 8, !tbaa !9
  %83 = call ptr @entry_append(ptr noundef %80, ptr noundef %81, i64 noundef %82)
  store ptr %83, ptr %16, align 8, !tbaa !21
  %84 = load ptr, ptr %16, align 8, !tbaa !21
  %85 = icmp ne ptr %84, null
  br i1 %85, label %87, label %86

86:                                               ; preds = %70
  store i32 27, ptr %4, align 4
  store i32 1, ptr %14, align 4
  br label %98

87:                                               ; preds = %70
  %88 = load ptr, ptr %16, align 8, !tbaa !21
  %89 = load ptr, ptr %5, align 8, !tbaa !4
  %90 = getelementptr inbounds nuw %struct.dynhds, ptr %89, i32 0, i32 0
  %91 = load ptr, ptr %90, align 8, !tbaa !11
  %92 = load ptr, ptr %5, align 8, !tbaa !4
  %93 = getelementptr inbounds nuw %struct.dynhds, ptr %92, i32 0, i32 1
  %94 = load i64, ptr %93, align 8, !tbaa !17
  %95 = sub i64 %94, 1
  %96 = getelementptr inbounds nuw ptr, ptr %91, i64 %95
  store ptr %88, ptr %96, align 8, !tbaa !21
  %97 = load ptr, ptr %15, align 8, !tbaa !21
  call void @entry_free(ptr noundef %97)
  store i32 0, ptr %4, align 4
  store i32 1, ptr %14, align 4
  br label %98

98:                                               ; preds = %87, %86, %69, %40
  call void @llvm.lifetime.end.p0(i64 8, ptr %16) #5
  call void @llvm.lifetime.end.p0(i64 8, ptr %15) #5
  br label %168

99:                                               ; preds = %29
  %100 = load ptr, ptr %6, align 8, !tbaa !28
  %101 = load i64, ptr %7, align 8, !tbaa !9
  %102 = call ptr @memchr(ptr noundef %100, i32 noundef 58, i64 noundef %101) #6
  store ptr %102, ptr %8, align 8, !tbaa !28
  %103 = load ptr, ptr %8, align 8, !tbaa !28
  %104 = icmp ne ptr %103, null
  br i1 %104, label %106, label %105

105:                                              ; preds = %99
  store i32 43, ptr %4, align 4
  store i32 1, ptr %14, align 4
  br label %168

106:                                              ; preds = %99
  %107 = load ptr, ptr %6, align 8, !tbaa !28
  store ptr %107, ptr %9, align 8, !tbaa !28
  %108 = load ptr, ptr %8, align 8, !tbaa !28
  %109 = load ptr, ptr %6, align 8, !tbaa !28
  %110 = ptrtoint ptr %108 to i64
  %111 = ptrtoint ptr %109 to i64
  %112 = sub i64 %110, %111
  store i64 %112, ptr %10, align 8, !tbaa !9
  %113 = load ptr, ptr %8, align 8, !tbaa !28
  %114 = getelementptr inbounds nuw i8, ptr %113, i32 1
  store ptr %114, ptr %8, align 8, !tbaa !28
  %115 = load i64, ptr %10, align 8, !tbaa !9
  %116 = add i64 %115, 1
  store i64 %116, ptr %13, align 8, !tbaa !9
  br label %117

117:                                              ; preds = %133, %106
  %118 = load i64, ptr %13, align 8, !tbaa !9
  %119 = load i64, ptr %7, align 8, !tbaa !9
  %120 = icmp ult i64 %118, %119
  br i1 %120, label %121, label %138

121:                                              ; preds = %117
  %122 = load ptr, ptr %8, align 8, !tbaa !28
  %123 = load i8, ptr %122, align 1, !tbaa !37
  %124 = sext i8 %123 to i32
  %125 = icmp eq i32 %124, 32
  br i1 %125, label %132, label %126

126:                                              ; preds = %121
  %127 = load ptr, ptr %8, align 8, !tbaa !28
  %128 = load i8, ptr %127, align 1, !tbaa !37
  %129 = sext i8 %128 to i32
  %130 = icmp eq i32 %129, 9
  br i1 %130, label %132, label %131

131:                                              ; preds = %126
  br label %138

132:                                              ; preds = %126, %121
  br label %133

133:                                              ; preds = %132
  %134 = load i64, ptr %13, align 8, !tbaa !9
  %135 = add i64 %134, 1
  store i64 %135, ptr %13, align 8, !tbaa !9
  %136 = load ptr, ptr %8, align 8, !tbaa !28
  %137 = getelementptr inbounds nuw i8, ptr %136, i32 1
  store ptr %137, ptr %8, align 8, !tbaa !28
  br label %117, !llvm.loop !39

138:                                              ; preds = %131, %117
  %139 = load ptr, ptr %8, align 8, !tbaa !28
  store ptr %139, ptr %11, align 8, !tbaa !28
  %140 = load i64, ptr %7, align 8, !tbaa !9
  %141 = load i64, ptr %13, align 8, !tbaa !9
  %142 = sub i64 %140, %141
  store i64 %142, ptr %12, align 8, !tbaa !9
  %143 = load ptr, ptr %11, align 8, !tbaa !28
  %144 = load i64, ptr %12, align 8, !tbaa !9
  %145 = call ptr @memchr(ptr noundef %143, i32 noundef 13, i64 noundef %144) #6
  store ptr %145, ptr %8, align 8, !tbaa !28
  %146 = load ptr, ptr %8, align 8, !tbaa !28
  %147 = icmp ne ptr %146, null
  br i1 %147, label %152, label %148

148:                                              ; preds = %138
  %149 = load ptr, ptr %11, align 8, !tbaa !28
  %150 = load i64, ptr %12, align 8, !tbaa !9
  %151 = call ptr @memchr(ptr noundef %149, i32 noundef 10, i64 noundef %150) #6
  store ptr %151, ptr %8, align 8, !tbaa !28
  br label %152

152:                                              ; preds = %148, %138
  %153 = load ptr, ptr %8, align 8, !tbaa !28
  %154 = icmp ne ptr %153, null
  br i1 %154, label %155, label %161

155:                                              ; preds = %152
  %156 = load ptr, ptr %8, align 8, !tbaa !28
  %157 = load ptr, ptr %11, align 8, !tbaa !28
  %158 = ptrtoint ptr %156 to i64
  %159 = ptrtoint ptr %157 to i64
  %160 = sub i64 %158, %159
  store i64 %160, ptr %12, align 8, !tbaa !9
  br label %161

161:                                              ; preds = %155, %152
  %162 = load ptr, ptr %5, align 8, !tbaa !4
  %163 = load ptr, ptr %9, align 8, !tbaa !28
  %164 = load i64, ptr %10, align 8, !tbaa !9
  %165 = load ptr, ptr %11, align 8, !tbaa !28
  %166 = load i64, ptr %12, align 8, !tbaa !9
  %167 = call i32 @Curl_dynhds_add(ptr noundef %162, ptr noundef %163, i64 noundef %164, ptr noundef %165, i64 noundef %166)
  store i32 %167, ptr %4, align 4
  store i32 1, ptr %14, align 4
  br label %168

168:                                              ; preds = %161, %105, %98, %22
  call void @llvm.lifetime.end.p0(i64 8, ptr %13) #5
  call void @llvm.lifetime.end.p0(i64 8, ptr %12) #5
  call void @llvm.lifetime.end.p0(i64 8, ptr %11) #5
  call void @llvm.lifetime.end.p0(i64 8, ptr %10) #5
  call void @llvm.lifetime.end.p0(i64 8, ptr %9) #5
  call void @llvm.lifetime.end.p0(i64 8, ptr %8) #5
  %169 = load i32, ptr %4, align 4
  ret i32 %169
}